; Function Attrs: nounwind uwtable
define dso_local range(i32 -9, 1) i32 @hs_clone_scratch(ptr noundef %0, ptr noundef writeonly %1) local_unnamed_addr #0 {
  %3 = icmp ne ptr %1, null
  %4 = icmp ne ptr %0, null
  %or.cond = and i1 %4, %3
  %5 = ptrtoint ptr %0 to i64
  %6 = and i64 %5, 63
  %7 = icmp eq i64 %6, 0
  %or.cond17 = and i1 %or.cond, %7
  br i1 %or.cond17, label %8, label %13

8:                                                ; preds = %2
  %9 = load i32, ptr %0, align 64
  %.not = icmp eq i32 %9, 1414480473
  br i1 %.not, label %10, label %13

10:                                               ; preds = %8
  store ptr null, ptr %1, align 8
  %11 = tail call fastcc i32 @alloc_scratch(ptr noundef nonnull %0, ptr noundef %1)
  %.not14 = icmp eq i32 %11, 0
  br i1 %.not14, label %13, label %12

12:                                               ; preds = %10
  store ptr null, ptr %1, align 8
  br label %13

13:                                               ; preds = %12, %10, %2, %8
  %.0 = phi i32 [ -1, %8 ], [ -1, %2 ], [ %11, %12 ], [ 0, %10 ]
  ret i32 %.0
}